target datalayout = "e-m:e-p270:32:32-p271:32:32-p272:64:64-i64:64-i128:128-f80:128-n8:16:32:64-S128"
target triple = "x86_64-pc-linux-gnu"

@.str.5 = private unnamed_addr constant [113 x i8] c"generated/home/dtcxzyw/WorkSpace/Projects/compilers/llvm-opt-benchmark/bench/z3/z3/src/math/lp/lp_settings_def.h\00", align 1
@.str.6 = private unnamed_addr constant [29 x i8] c"UNEXPECTED CODE WAS REACHED.\00", align 1
@.str.8 = private unnamed_addr constant [8 x i8] c"UNKNOWN\00", align 1
@.str.9 = private unnamed_addr constant [11 x i8] c"INFEASIBLE\00", align 1
@.str.10 = private unnamed_addr constant [10 x i8] c"UNBOUNDED\00", align 1
@.str.11 = private unnamed_addr constant [25 x i8] c"TENTATIVE_DUAL_UNBOUNDED\00", align 1
@.str.12 = private unnamed_addr constant [15 x i8] c"DUAL_UNBOUNDED\00", align 1
@.str.13 = private unnamed_addr constant [8 x i8] c"OPTIMAL\00", align 1
@.str.14 = private unnamed_addr constant [9 x i8] c"FEASIBLE\00", align 1
@.str.15 = private unnamed_addr constant [15 x i8] c"TIME_EXHAUSTED\00", align 1
@.str.16 = private unnamed_addr constant [6 x i8] c"EMPTY\00", align 1
@.str.17 = private unnamed_addr constant [9 x i8] c"UNSTABLE\00", align 1
@.str.18 = private unnamed_addr constant [10 x i8] c"CANCELLED\00", align 1

; Function Attrs: mustprogress uwtable
define hidden noundef ptr @_ZN2lp19lp_status_to_stringENS_9lp_statusE(i32 noundef %0) #4 {
  %2 = alloca ptr, align 8
  %3 = alloca i32, align 4
  store i32 %0, ptr %3, align 4, !tbaa !14
  %4 = load i32, ptr %3, align 4, !tbaa !14
  switch i32 %4, label %16 [
    i32 0, label %5
    i32 1, label %6
    i32 3, label %7
    i32 4, label %8
    i32 5, label %9
    i32 11, label %10
    i32 10, label %11
    i32 6, label %12
    i32 7, label %13
    i32 8, label %14
    i32 9, label %15
  ]

5:                                                ; preds = %1
  store ptr @.str.8, ptr %2, align 8
  br label %18

6:                                                ; preds = %1
  store ptr @.str.9, ptr %2, align 8
  br label %18

7:                                                ; preds = %1
  store ptr @.str.10, ptr %2, align 8
  br label %18

8:                                                ; preds = %1
  store ptr @.str.11, ptr %2, align 8
  br label %18

9:                                                ; preds = %1
  store ptr @.str.12, ptr %2, align 8
  br label %18

10:                                               ; preds = %1
  store ptr @.str.13, ptr %2, align 8
  br label %18

11:                                               ; preds = %1
  store ptr @.str.14, ptr %2, align 8
  br label %18

12:                                               ; preds = %1
  store ptr @.str.15, ptr %2, align 8
  br label %18

13:                                               ; preds = %1
  store ptr @.str.16, ptr %2, align 8
  br label %18

14:                                               ; preds = %1
  store ptr @.str.17, ptr %2, align 8
  br label %18

15:                                               ; preds = %1
  store ptr @.str.18, ptr %2, align 8
  br label %18

16:                                               ; preds = %1
  call void @_Z26notify_assertion_violationPKciS0_(ptr noundef @.str.5, i32 noundef 53, ptr noundef @.str.6)
  call void @_Z18invoke_exit_actionj(i32 noundef 114)
  br label %17

17:                                               ; preds = %16
  store ptr @.str.8, ptr %2, align 8
  br label %18

18:                                               ; preds = %17, %15, %14, %13, %12, %11, %10, %9, %8, %7, %6, %5
  %19 = load ptr, ptr %2, align 8
  ret ptr %19
}