; Function Attrs: mustprogress uwtable
define hidden noundef nonnull ptr @_ZN2lp19lp_status_to_stringENS_9lp_statusE(i32 noundef %0) local_unnamed_addr #3 {
  %2 = icmp ult i32 %0, 12
  br i1 %2, label %switch.hole_check, label %3

3:                                                ; preds = %switch.hole_check, %1
  tail call void @_Z26notify_assertion_violationPKciS0_(ptr noundef nonnull @.str.5, i32 noundef 53, ptr noundef nonnull @.str.6)
  tail call void @_Z18invoke_exit_actionj(i32 noundef 114)
  br label %5

switch.hole_check:                                ; preds = %1
  %switch.maskindex = trunc nuw i32 %0 to i16
  %switch.shifted = lshr i16 4091, %switch.maskindex
  %switch.lobit = trunc i16 %switch.shifted to i1
  br i1 %switch.lobit, label %switch.lookup, label %3

switch.lookup:                                    ; preds = %switch.hole_check
  %4 = zext nneg i32 %0 to i64
  %switch.gep = getelementptr inbounds nuw [12 x ptr], ptr @switch.table._ZN2lp19lp_status_to_stringENS_9lp_statusE, i64 0, i64 %4
  %switch.load = load ptr, ptr %switch.gep, align 8
  br label %5

5:                                                ; preds = %switch.lookup, %3
  %.0 = phi ptr [ @.str.8, %3 ], [ %switch.load, %switch.lookup ]
  ret ptr %.0
}